; Function Attrs: nounwind uwtable
define internal float @_action_process_focus_combo(ptr noundef %0, i32 noundef %1, i32 noundef %2, float noundef %3) #0 {
  %5 = alloca i32, align 4
  %6 = alloca ptr, align 8
  store i32 %1, ptr %5, align 4, !tbaa !79
  call void @llvm.lifetime.start.p0(i64 8, ptr nonnull %6) #19
  %7 = getelementptr inbounds nuw i8, ptr %0, i64 816
  %8 = load ptr, ptr %7, align 16, !tbaa !297
  store ptr %8, ptr %6, align 8, !tbaa !298
  %9 = call fastcc i32 @_find_nth_bauhaus(ptr noundef %6, ptr noundef %5, i32 noundef 2)
  %.not = icmp eq i32 %9, 0
  br i1 %.not, label %13, label %10

10:                                               ; preds = %4
  %11 = load ptr, ptr %6, align 8, !tbaa !298
  %12 = tail call reassoc nsz arcp contract afn float @_action_process_combo(ptr noundef %11, i32 noundef 0, i32 noundef %2, float noundef %3)
  br label %17

13:                                               ; preds = %4
  %14 = fcmp reassoc nsz arcp contract afn une float %3, 0xC7EFFFFFE0000000
  br i1 %14, label %15, label %17

15:                                               ; preds = %13
  %16 = tail call ptr @dcgettext(ptr noundef null, ptr noundef nonnull @.str.104, i32 noundef 5) #19
  tail call void (ptr, ptr, ptr, ...) @dt_action_widget_toast(ptr noundef nonnull %0, ptr noundef null, ptr noundef %16) #19
  br label %17

17:                                               ; preds = %13, %15, %10
  %.0 = phi nsz float [ %12, %10 ], [ 0xC7EFFFFFE0000000, %15 ], [ 0xC7EFFFFFE0000000, %13 ]
  call void @llvm.lifetime.end.p0(i64 8, ptr nonnull %6) #19
  ret float %.0
}